target datalayout = "e-m:e-p270:32:32-p271:32:32-p272:64:64-i64:64-i128:128-f80:128-n8:16:32:64-S128"
target triple = "x86_64-unknown-linux-gnu"

%"class.std::__cxx11::basic_string" = type { %"struct.std::__cxx11::basic_string<char>::_Alloc_hider", i64, %union.anon }
%"struct.std::__cxx11::basic_string<char>::_Alloc_hider" = type { ptr }
%union.anon = type { i64, [8 x i8] }

@.str.14 = private unnamed_addr constant [3 x i8] c"\\/\00", align 1

; Function Attrs: mustprogress uwtable
define hidden void @_ZN7datalog31get_file_name_without_extensionERKNSt7__cxx1112basic_stringIcSt11char_traitsIcESaIcEEE(ptr noalias sret(%"class.std::__cxx11::basic_string") align 8 %agg.result, ptr noundef nonnull align 8 dereferenceable(32) %name) #4 {
entry:
  %result.ptr = alloca ptr, align 8
  %name.addr = alloca ptr, align 8
  %slash_index = alloca i64, align 8
  %dot_index = alloca i64, align 8
  %ofs = alloca i64, align 8
  %count = alloca i64, align 8
  store ptr %agg.result, ptr %result.ptr, align 8
  store ptr %name, ptr %name.addr, align 8
  %0 = load ptr, ptr %name.addr, align 8
  %call = call noundef i64 @_ZNKSt7__cxx1112basic_stringIcSt11char_traitsIcESaIcEE12find_last_ofEPKcm(ptr noundef nonnull align 8 dereferenceable(32) %0, ptr noundef @.str.14, i64 noundef -1) #3
  store i64 %call, ptr %slash_index, align 8
  %1 = load ptr, ptr %name.addr, align 8
  %call1 = call noundef i64 @_ZNKSt7__cxx1112basic_stringIcSt11char_traitsIcESaIcEE5rfindEcm(ptr noundef nonnull align 8 dereferenceable(32) %1, i8 noundef signext 46, i64 noundef -1) #3
  store i64 %call1, ptr %dot_index, align 8
  %2 = load i64, ptr %slash_index, align 8
  %cmp = icmp eq i64 %2, -1
  br i1 %cmp, label %cond.true, label %cond.false

cond.true:                                        ; preds = %entry
  br label %cond.end

cond.false:                                       ; preds = %entry
  %3 = load i64, ptr %slash_index, align 8
  %add = add i64 %3, 1
  br label %cond.end

cond.end:                                         ; preds = %cond.false, %cond.true
  %cond = phi i64 [ 0, %cond.true ], [ %add, %cond.false ]
  store i64 %cond, ptr %ofs, align 8
  %4 = load i64, ptr %dot_index, align 8
  %cmp2 = icmp ne i64 %4, -1
  br i1 %cmp2, label %land.lhs.true, label %cond.false5

land.lhs.true:                                    ; preds = %cond.end
  %5 = load i64, ptr %dot_index, align 8
  %6 = load i64, ptr %ofs, align 8
  %cmp3 = icmp ugt i64 %5, %6
  br i1 %cmp3, label %cond.true4, label %cond.false5

cond.true4:                                       ; preds = %land.lhs.true
  %7 = load i64, ptr %dot_index, align 8
  %8 = load i64, ptr %ofs, align 8
  %sub = sub i64 %7, %8
  br label %cond.end6

cond.false5:                                      ; preds = %land.lhs.true, %cond.end
  br label %cond.end6

cond.end6:                                        ; preds = %cond.false5, %cond.true4
  %cond7 = phi i64 [ %sub, %cond.true4 ], [ -1, %cond.false5 ]
  store i64 %cond7, ptr %count, align 8
  %9 = load ptr, ptr %name.addr, align 8
  %10 = load i64, ptr %ofs, align 8
  %11 = load i64, ptr %count, align 8
  call void @_ZNKSt7__cxx1112basic_stringIcSt11char_traitsIcESaIcEE6substrEmm(ptr sret(%"class.std::__cxx11::basic_string") align 8 %agg.result, ptr noundef nonnull align 8 dereferenceable(32) %9, i64 noundef %10, i64 noundef %11)
  ret void
}