; Function Attrs: mustprogress uwtable
define hidden void @_ZN7datalog31get_file_name_without_extensionERKNSt7__cxx1112basic_stringIcSt11char_traitsIcESaIcEEE(ptr noalias sret(%"class.std::__cxx11::basic_string") align 8 %agg.result, ptr noundef nonnull align 8 dereferenceable(32) %name) local_unnamed_addr #3 {
entry:
  %call = tail call noundef i64 @_ZNKSt7__cxx1112basic_stringIcSt11char_traitsIcESaIcEE12find_last_ofEPKcm(ptr noundef nonnull align 8 dereferenceable(32) %name, ptr noundef nonnull @.str.14, i64 noundef -1) #21
  %call1 = tail call noundef i64 @_ZNKSt7__cxx1112basic_stringIcSt11char_traitsIcESaIcEE5rfindEcm(ptr noundef nonnull align 8 dereferenceable(32) %name, i8 noundef signext 46, i64 noundef -1) #21
  %add = add i64 %call, 1
  %cmp2.not = icmp ne i64 %call1, -1
  %cmp3 = icmp ugt i64 %call1, %add
  %or.cond = and i1 %cmp2.not, %cmp3
  %sub = sub i64 %call1, %add
  %cond7 = select i1 %or.cond, i64 %sub, i64 -1
  tail call void @_ZNKSt7__cxx1112basic_stringIcSt11char_traitsIcESaIcEE6substrEmm(ptr sret(%"class.std::__cxx11::basic_string") align 8 %agg.result, ptr noundef nonnull align 8 dereferenceable(32) %name, i64 noundef %add, i64 noundef %cond7)
  ret void
}